target datalayout = "e-m:e-p270:32:32-p271:32:32-p272:64:64-i64:64-i128:128-f80:128-n8:16:32:64-S128"
target triple = "x86_64-pc-linux-gnu"

%struct.cert_store_t = type { %union.pthread_mutex_t, i8, %struct.cert_list_t, %struct.cert_list_t }
%union.pthread_mutex_t = type { %struct.__pthread_mutex_s }
%struct.__pthread_mutex_s = type { i32, i32, i32, i32, i32, i16, i16, %struct.__pthread_internal_list }
%struct.__pthread_internal_list = type { ptr, ptr }
%struct.cert_list_t = type { ptr, i64 }

@_cert_store = internal global %struct.cert_store_t zeroinitializer, align 8
@.str.14 = private unnamed_addr constant [31 x i8] c"Failed to retrieve cert store\0A\00", align 1
@.str.18 = private unnamed_addr constant [27 x i8] c"Failed to load cert store\0A\00", align 1

; Function Attrs: nounwind uwtable
define ptr @cert_store_get_int() #0 {
  ret ptr @_cert_store
}

; Function Attrs: nounwind uwtable
define i32 @sslctx_function(ptr noundef %0, ptr noundef %1, ptr noundef %2) #0 {
  %4 = alloca ptr, align 8
  %5 = alloca ptr, align 8
  %6 = alloca ptr, align 8
  %7 = alloca i32, align 4
  %8 = alloca ptr, align 8
  %9 = alloca ptr, align 8
  store ptr %0, ptr %4, align 8
  store ptr %1, ptr %5, align 8
  store ptr %2, ptr %6, align 8
  store i32 43, ptr %7, align 4
  store ptr null, ptr %8, align 8
  %10 = call ptr @cert_store_get_int()
  store ptr %10, ptr %8, align 8
  %11 = load ptr, ptr %8, align 8
  %12 = icmp ne ptr %11, null
  br i1 %12, label %14, label %13

13:                                               ; preds = %3
  call void (i32, ptr, ...) @mprintf(i32 noundef 5, ptr noundef @.str.14)
  br label %28

14:                                               ; preds = %3
  %15 = load ptr, ptr %8, align 8
  %16 = getelementptr inbounds %struct.cert_store_t, ptr %15, i32 0, i32 1
  %17 = load i8, ptr %16, align 8
  %18 = trunc i8 %17 to i1
  br i1 %18, label %24, label %19

19:                                               ; preds = %14
  %20 = call i32 @cert_store_load(ptr noundef null, i64 noundef 0)
  %21 = icmp ne i32 0, %20
  br i1 %21, label %22, label %23

22:                                               ; preds = %19
  call void (i32, ptr, ...) @mprintf(i32 noundef 5, ptr noundef @.str.18)
  br label %28

23:                                               ; preds = %19
  br label %24

24:                                               ; preds = %23, %14
  %25 = load ptr, ptr %5, align 8
  %26 = call ptr @SSL_CTX_get_cert_store(ptr noundef %25)
  store ptr %26, ptr %9, align 8
  %27 = load ptr, ptr %9, align 8
  call void @cert_store_export_certs(ptr noundef %27, ptr noundef null)
  store i32 0, ptr %7, align 4
  br label %28

28:                                               ; preds = %24, %22, %13
  %29 = load i32, ptr %7, align 4
  ret i32 %29
}