; Function Attrs: nounwind uwtable
define noundef i32 @sslctx_function(ptr nocapture noundef readnone %0, ptr noundef %1, ptr nocapture noundef readnone %2) local_unnamed_addr #1 {
  %4 = load i8, ptr getelementptr inbounds (%struct.cert_store_t, ptr @_cert_store, i64 0, i32 1), align 8
  %5 = trunc i8 %4 to i1
  br i1 %5, label %9, label %6

6:                                                ; preds = %3
  %7 = tail call i32 @cert_store_load(ptr noundef null, i64 noundef 0) #15
  %.not = icmp eq i32 %7, 0
  br i1 %.not, label %9, label %8

8:                                                ; preds = %6
  tail call void (i32, ptr, ...) @mprintf(i32 noundef 5, ptr noundef nonnull @.str.18) #15
  br label %11

9:                                                ; preds = %6, %3
  %10 = tail call ptr @SSL_CTX_get_cert_store(ptr noundef %1) #15
  tail call void @cert_store_export_certs(ptr noundef %10, ptr noundef null)
  br label %11

11:                                               ; preds = %9, %8
  %.0 = phi i32 [ 0, %9 ], [ 43, %8 ]
  ret i32 %.0
}